target datalayout = "e-m:e-p270:32:32-p271:32:32-p272:64:64-i64:64-i128:128-f80:128-n8:16:32:64-S128"
target triple = "x86_64-pc-linux-gnu"

%class.RtpAudioStream = type { %class.QObject, %struct._rtpstream_id, %struct._rtpstream_info, i8, %class.QList, ptr, ptr, ptr, double, double, double, double, i64, %class.AudioRouting, i8, i32, i32, i32, %class.QSet, ptr, %class.QMap, %class.QList.0, %class.QList.4, %class.QList.4, %class.QList.4, %class.QList.4, i16, i16, i32, i32, i32, double, ptr }
%class.QObject = type { ptr, %class.QScopedPointer }
%class.QScopedPointer = type { ptr }
%struct._rtpstream_id = type { %struct._address, i16, %struct._address, i16, i32 }
%struct._address = type { i32, i32, ptr, ptr }
%struct._rtpstream_info = type { %struct._rtpstream_id, i8, ptr, [256 x ptr], ptr, i32, i32, i32, i32, i32, i32, ptr, ptr, %struct.nstime_t, %struct.nstime_t, %struct.nstime_t, i16, i32, i32, %struct._tap_rtp_stat_t, i32, ptr }
%struct.nstime_t = type { i64, i32 }
%struct._tap_rtp_stat_t = type { i32, i32, i16, i64, i64, double, [300 x %struct._bw_history_item], i16, i16, i32, i32, double, double, double, double, double, double, double, double, double, double, double, double, double, double, double, double, double, double, double, i32, i16, i16, i32, i32, i32, i32, i16, i32, i32, i32 }
%struct._bw_history_item = type { double, i32 }
%class.QList = type { %struct.QArrayDataPointer }
%struct.QArrayDataPointer = type { ptr, ptr, i64 }
%class.AudioRouting = type { i8, i32 }
%class.QSet = type { %class.QHash }
%class.QHash = type { ptr }
%class.QMap = type { %"class.QtPrivate::QExplicitlySharedDataPointerV2" }
%"class.QtPrivate::QExplicitlySharedDataPointerV2" = type { ptr }
%class.QList.0 = type { %struct.QArrayDataPointer.3 }
%struct.QArrayDataPointer.3 = type { ptr, ptr, i64 }
%class.QList.4 = type { %struct.QArrayDataPointer.7 }
%struct.QArrayDataPointer.7 = type { ptr, ptr, i64 }

; Function Attrs: mustprogress nounwind uwtable
define linkonce_odr noundef zeroext i1 @_ZN12AudioRouting7isMutedEv(ptr noundef nonnull align 4 dereferenceable(8) %0) #2 comdat align 2 {
  %2 = alloca ptr, align 8
  store ptr %0, ptr %2, align 8
  %3 = load ptr, ptr %2, align 8
  %4 = getelementptr inbounds %class.AudioRouting, ptr %3, i32 0, i32 0
  %5 = load i8, ptr %4, align 4
  %6 = trunc i8 %5 to i1
  ret i1 %6
}

; Function Attrs: mustprogress uwtable
define void @_ZN14RtpAudioStream12pausePlayingEv(ptr noundef nonnull align 8 dereferenceable(7680) %0) #0 align 2 {
  %2 = alloca ptr, align 8
  store ptr %0, ptr %2, align 8
  %3 = load ptr, ptr %2, align 8
  %4 = getelementptr inbounds %class.RtpAudioStream, ptr %3, i32 0, i32 13
  %5 = call noundef zeroext i1 @_ZN12AudioRouting7isMutedEv(ptr noundef nonnull align 4 dereferenceable(8) %4)
  br i1 %5, label %6, label %7

6:                                                ; preds = %1
  br label %29

7:                                                ; preds = %1
  %8 = getelementptr inbounds %class.RtpAudioStream, ptr %3, i32 0, i32 32
  %9 = load ptr, ptr %8, align 8
  %10 = icmp ne ptr %9, null
  br i1 %10, label %11, label %29

11:                                               ; preds = %7
  %12 = getelementptr inbounds %class.RtpAudioStream, ptr %3, i32 0, i32 32
  %13 = load ptr, ptr %12, align 8
  %14 = call noundef i32 @_ZNK10QAudioSink5stateEv(ptr noundef nonnull align 8 dereferenceable(24) %13)
  %15 = icmp eq i32 0, %14
  br i1 %15, label %16, label %19

16:                                               ; preds = %11
  %17 = getelementptr inbounds %class.RtpAudioStream, ptr %3, i32 0, i32 32
  %18 = load ptr, ptr %17, align 8
  call void @_ZN10QAudioSink7suspendEv(ptr noundef nonnull align 8 dereferenceable(24) %18)
  br label %28

19:                                               ; preds = %11
  %20 = getelementptr inbounds %class.RtpAudioStream, ptr %3, i32 0, i32 32
  %21 = load ptr, ptr %20, align 8
  %22 = call noundef i32 @_ZNK10QAudioSink5stateEv(ptr noundef nonnull align 8 dereferenceable(24) %21)
  %23 = icmp eq i32 1, %22
  br i1 %23, label %24, label %27

24:                                               ; preds = %19
  %25 = getelementptr inbounds %class.RtpAudioStream, ptr %3, i32 0, i32 32
  %26 = load ptr, ptr %25, align 8
  call void @_ZN10QAudioSink6resumeEv(ptr noundef nonnull align 8 dereferenceable(24) %26)
  br label %27

27:                                               ; preds = %24, %19
  br label %28

28:                                               ; preds = %27, %16
  br label %29

29:                                               ; preds = %28, %7, %6
  ret void
}