; Function Attrs: mustprogress uwtable
define void @_ZN14RtpAudioStream12pausePlayingEv(ptr nocapture noundef nonnull readonly align 8 dereferenceable(7680) %0) local_unnamed_addr #0 align 2 {
  %2 = getelementptr inbounds i8, ptr %0, i64 7480
  %3 = load i8, ptr %2, align 8
  %4 = and i8 %3, 1
  %.not1 = icmp eq i8 %4, 0
  br i1 %.not1, label %5, label %18

5:                                                ; preds = %1
  %6 = getelementptr inbounds i8, ptr %0, i64 7672
  %7 = load ptr, ptr %6, align 8
  %.not = icmp eq ptr %7, null
  br i1 %.not, label %18, label %8

8:                                                ; preds = %5
  %9 = tail call noundef i32 @_ZNK10QAudioSink5stateEv(ptr noundef nonnull align 8 dereferenceable(24) %7)
  %10 = icmp eq i32 %9, 0
  %11 = load ptr, ptr %6, align 8
  br i1 %10, label %12, label %13

12:                                               ; preds = %8
  tail call void @_ZN10QAudioSink7suspendEv(ptr noundef nonnull align 8 dereferenceable(24) %11)
  br label %18

13:                                               ; preds = %8
  %14 = tail call noundef i32 @_ZNK10QAudioSink5stateEv(ptr noundef nonnull align 8 dereferenceable(24) %11)
  %15 = icmp eq i32 %14, 1
  br i1 %15, label %16, label %18

16:                                               ; preds = %13
  %17 = load ptr, ptr %6, align 8
  tail call void @_ZN10QAudioSink6resumeEv(ptr noundef nonnull align 8 dereferenceable(24) %17)
  br label %18

18:                                               ; preds = %12, %16, %13, %1, %5
  ret void
}